target datalayout = "e-m:e-p270:32:32-p271:32:32-p272:64:64-i64:64-f80:128-n8:16:32:64-S128"
target triple = "x86_64-pc-linux-gnu"

%struct.stu = type { i32, [27 x i8], %struct.stu* }

@.str = private unnamed_addr constant [6 x i8] c"%d %s\00", align 1
@n = common dso_local global i32 0, align 4
@.str.1 = private unnamed_addr constant [3 x i8] c"%d\00", align 1
@.str.2 = private unnamed_addr constant [7 x i8] c"%c\0A%d\0A\00", align 1
@.str.3 = private unnamed_addr constant [4 x i8] c"%d\0A\00", align 1

; Function Attrs: noinline nounwind uwtable
define dso_local %struct.stu* @creat() #0 {
  %1 = alloca i32, align 4
  %2 = alloca %struct.stu*, align 8
  %3 = alloca %struct.stu*, align 8
  %4 = alloca %struct.stu*, align 8
  store i32 0, i32* %1, align 4
  %5 = call noalias i8* @malloc(i64 40) #4
  %6 = bitcast i8* %5 to %struct.stu*
  store %struct.stu* %6, %struct.stu** %4, align 8
  store %struct.stu* %6, %struct.stu** %3, align 8
  store %struct.stu* %6, %struct.stu** %2, align 8
  %7 = load %struct.stu*, %struct.stu** %4, align 8
  %8 = getelementptr inbounds %struct.stu, %struct.stu* %7, i32 0, i32 0
  %9 = load %struct.stu*, %struct.stu** %4, align 8
  %10 = getelementptr inbounds %struct.stu, %struct.stu* %9, i32 0, i32 1
  %11 = getelementptr inbounds [27 x i8], [27 x i8]* %10, i64 0, i64 0
  %12 = call i32 (i8*, ...) @__isoc99_scanf(i8* getelementptr inbounds ([6 x i8], [6 x i8]* @.str, i64 0, i64 0), i32* %8, i8* %11)
  br label %13

13:                                               ; preds = %18, %0
  %14 = load i32, i32* %1, align 4
  %15 = load i32, i32* @n, align 4
  %16 = sub nsw i32 %15, 1
  %17 = icmp slt i32 %14, %16
  br i1 %17, label %18, label %33

18:                                               ; preds = %13
  %19 = load i32, i32* %1, align 4
  %20 = add nsw i32 %19, 1
  store i32 %20, i32* %1, align 4
  %21 = call noalias i8* @malloc(i64 40) #4
  %22 = bitcast i8* %21 to %struct.stu*
  store %struct.stu* %22, %struct.stu** %4, align 8
  %23 = load %struct.stu*, %struct.stu** %4, align 8
  %24 = getelementptr inbounds %struct.stu, %struct.stu* %23, i32 0, i32 0
  %25 = load %struct.stu*, %struct.stu** %4, align 8
  %26 = getelementptr inbounds %struct.stu, %struct.stu* %25, i32 0, i32 1
  %27 = getelementptr inbounds [27 x i8], [27 x i8]* %26, i64 0, i64 0
  %28 = call i32 (i8*, ...) @__isoc99_scanf(i8* getelementptr inbounds ([6 x i8], [6 x i8]* @.str, i64 0, i64 0), i32* %24, i8* %27)
  %29 = load %struct.stu*, %struct.stu** %4, align 8
  %30 = load %struct.stu*, %struct.stu** %3, align 8
  %31 = getelementptr inbounds %struct.stu, %struct.stu* %30, i32 0, i32 2
  store %struct.stu* %29, %struct.stu** %31, align 8
  %32 = load %struct.stu*, %struct.stu** %4, align 8
  store %struct.stu* %32, %struct.stu** %3, align 8
  br label %13

33:                                               ; preds = %13
  %34 = load %struct.stu*, %struct.stu** %2, align 8
  ret %struct.stu* %34
}

; Function Attrs: noinline nounwind uwtable
define dso_local void @main() #0 {
  %1 = alloca %struct.stu*, align 8
  %2 = alloca %struct.stu*, align 8
  %3 = alloca i32, align 4
  %4 = alloca i32, align 4
  %5 = alloca i32, align 4
  %6 = alloca i32, align 4
  %7 = alloca [26 x i32], align 16
  store i32 0, i32* %5, align 4
  %8 = bitcast [26 x i32]* %7 to i8*
  call void @llvm.memset.p0i8.i64(i8* align 16 %8, i8 0, i64 104, i1 false)
  %9 = call i32 (i8*, ...) @__isoc99_scanf(i8* getelementptr inbounds ([3 x i8], [3 x i8]* @.str.1, i64 0, i64 0), i32* @n)
  %10 = call %struct.stu* @creat()
  store %struct.stu* %10, %struct.stu** %1, align 8
  store %struct.stu* %10, %struct.stu** %2, align 8
  store i32 0, i32* %3, align 4
  br label %11

11:                                               ; preds = %45, %0
  %12 = load i32, i32* %3, align 4
  %13 = load i32, i32* @n, align 4
  %14 = icmp slt i32 %12, %13
  br i1 %14, label %15, label %48

15:                                               ; preds = %11
  store i32 0, i32* %4, align 4
  br label %16

16:                                               ; preds = %38, %15
  %17 = load %struct.stu*, %struct.stu** %1, align 8
  %18 = getelementptr inbounds %struct.stu, %struct.stu* %17, i32 0, i32 1
  %19 = load i32, i32* %4, align 4
  %20 = sext i32 %19 to i64
  %21 = getelementptr inbounds [27 x i8], [27 x i8]* %18, i64 0, i64 %20
  %22 = load i8, i8* %21, align 1
  %23 = sext i8 %22 to i32
  %24 = icmp ne i32 %23, 0
  br i1 %24, label %25, label %41

25:                                               ; preds = %16
  %26 = load %struct.stu*, %struct.stu** %1, align 8
  %27 = getelementptr inbounds %struct.stu, %struct.stu* %26, i32 0, i32 1
  %28 = load i32, i32* %4, align 4
  %29 = sext i32 %28 to i64
  %30 = getelementptr inbounds [27 x i8], [27 x i8]* %27, i64 0, i64 %29
  %31 = load i8, i8* %30, align 1
  %32 = sext i8 %31 to i32
  %33 = sub nsw i32 %32, 65
  %34 = sext i32 %33 to i64
  %35 = getelementptr inbounds [26 x i32], [26 x i32]* %7, i64 0, i64 %34
  %36 = load i32, i32* %35, align 4
  %37 = add nsw i32 %36, 1
  store i32 %37, i32* %35, align 4
  br label %38

38:                                               ; preds = %25
  %39 = load i32, i32* %4, align 4
  %40 = add nsw i32 %39, 1
  store i32 %40, i32* %4, align 4
  br label %16

41:                                               ; preds = %16
  %42 = load %struct.stu*, %struct.stu** %1, align 8
  %43 = getelementptr inbounds %struct.stu, %struct.stu* %42, i32 0, i32 2
  %44 = load %struct.stu*, %struct.stu** %43, align 8
  store %struct.stu* %44, %struct.stu** %1, align 8
  br label %45

45:                                               ; preds = %41
  %46 = load i32, i32* %3, align 4
  %47 = add nsw i32 %46, 1
  store i32 %47, i32* %3, align 4
  br label %11

48:                                               ; preds = %11
  store i32 0, i32* %3, align 4
  br label %49

49:                                               ; preds = %66, %48
  %50 = load i32, i32* %3, align 4
  %51 = icmp slt i32 %50, 26
  br i1 %51, label %52, label %69

52:                                               ; preds = %49
  %53 = load i32, i32* %3, align 4
  %54 = sext i32 %53 to i64
  %55 = getelementptr inbounds [26 x i32], [26 x i32]* %7, i64 0, i64 %54
  %56 = load i32, i32* %55, align 4
  %57 = load i32, i32* %5, align 4
  %58 = icmp sgt i32 %56, %57
  br i1 %58, label %59, label %65

59:                                               ; preds = %52
  %60 = load i32, i32* %3, align 4
  %61 = sext i32 %60 to i64
  %62 = getelementptr inbounds [26 x i32], [26 x i32]* %7, i64 0, i64 %61
  %63 = load i32, i32* %62, align 4
  store i32 %63, i32* %5, align 4
  %64 = load i32, i32* %3, align 4
  store i32 %64, i32* %6, align 4
  br label %65

65:                                               ; preds = %59, %52
  br label %66

66:                                               ; preds = %65
  %67 = load i32, i32* %3, align 4
  %68 = add nsw i32 %67, 1
  store i32 %68, i32* %3, align 4
  br label %49

69:                                               ; preds = %49
  %70 = load i32, i32* %6, align 4
  %71 = add nsw i32 %70, 65
  %72 = load i32, i32* %5, align 4
  %73 = call i32 (i8*, ...) @printf(i8* getelementptr inbounds ([7 x i8], [7 x i8]* @.str.2, i64 0, i64 0), i32 %71, i32 %72)
  %74 = load %struct.stu*, %struct.stu** %2, align 8
  store %struct.stu* %74, %struct.stu** %1, align 8
  store i32 0, i32* %3, align 4
  br label %75

75:                                               ; preds = %113, %69
  %76 = load i32, i32* %3, align 4
  %77 = load i32, i32* @n, align 4
  %78 = icmp slt i32 %76, %77
  br i1 %78, label %79, label %116

79:                                               ; preds = %75
  store i32 0, i32* %4, align 4
  br label %80

80:                                               ; preds = %106, %79
  %81 = load %struct.stu*, %struct.stu** %1, align 8
  %82 = getelementptr inbounds %struct.stu, %struct.stu* %81, i32 0, i32 1
  %83 = load i32, i32* %4, align 4
  %84 = sext i32 %83 to i64
  %85 = getelementptr inbounds [27 x i8], [27 x i8]* %82, i64 0, i64 %84
  %86 = load i8, i8* %85, align 1
  %87 = sext i8 %86 to i32
  %88 = icmp ne i32 %87, 0
  br i1 %88, label %89, label %109

89:                                               ; preds = %80
  %90 = load %struct.stu*, %struct.stu** %1, align 8
  %91 = getelementptr inbounds %struct.stu, %struct.stu* %90, i32 0, i32 1
  %92 = load i32, i32* %4, align 4
  %93 = sext i32 %92 to i64
  %94 = getelementptr inbounds [27 x i8], [27 x i8]* %91, i64 0, i64 %93
  %95 = load i8, i8* %94, align 1
  %96 = sext i8 %95 to i32
  %97 = load i32, i32* %6, align 4
  %98 = add nsw i32 %97, 65
  %99 = icmp eq i32 %96, %98
  br i1 %99, label %100, label %105

100:                                              ; preds = %89
  %101 = load %struct.stu*, %struct.stu** %1, align 8
  %102 = getelementptr inbounds %struct.stu, %struct.stu* %101, i32 0, i32 0
  %103 = load i32, i32* %102, align 8
  %104 = call i32 (i8*, ...) @printf(i8* getelementptr inbounds ([4 x i8], [4 x i8]* @.str.3, i64 0, i64 0), i32 %103)
  br label %109

105:                                              ; preds = %89
  br label %106

106:                                              ; preds = %105
  %107 = load i32, i32* %4, align 4
  %108 = add nsw i32 %107, 1
  store i32 %108, i32* %4, align 4
  br label %80

109:                                              ; preds = %100, %80
  %110 = load %struct.stu*, %struct.stu** %1, align 8
  %111 = getelementptr inbounds %struct.stu, %struct.stu* %110, i32 0, i32 2
  %112 = load %struct.stu*, %struct.stu** %111, align 8
  store %struct.stu* %112, %struct.stu** %1, align 8
  br label %113

113:                                              ; preds = %109
  %114 = load i32, i32* %3, align 4
  %115 = add nsw i32 %114, 1
  store i32 %115, i32* %3, align 4
  br label %75

116:                                              ; preds = %75
  ret void
}